target datalayout = "e-m:e-p270:32:32-p271:32:32-p272:64:64-i64:64-i128:128-f80:128-n8:16:32:64-S128"
target triple = "x86_64-pc-linux-gnu"

@.str.288 = private unnamed_addr constant [3 x i8] c"wb\00", align 1

; Function Attrs: nounwind uwtable
define internal i32 @_SaveDerAndPem(ptr noundef %0, i32 noundef %1, ptr noundef %2, ptr noundef %3, i32 noundef %4, i32 noundef %5) #0 {
  %7 = alloca i32, align 4
  %8 = alloca ptr, align 8
  %9 = alloca i32, align 4
  %10 = alloca ptr, align 8
  %11 = alloca ptr, align 8
  %12 = alloca i32, align 4
  %13 = alloca i32, align 4
  %14 = alloca i32, align 4
  %15 = alloca ptr, align 8
  %16 = alloca i32, align 4
  store ptr %0, ptr %8, align 8, !tbaa !15
  store i32 %1, ptr %9, align 4, !tbaa !14
  store ptr %2, ptr %10, align 8, !tbaa !15
  store ptr %3, ptr %11, align 8, !tbaa !15
  store i32 %4, ptr %12, align 4, !tbaa !14
  store i32 %5, ptr %13, align 4, !tbaa !14
  call void @llvm.lifetime.start.p0(i64 4, ptr %14) #10
  call void @llvm.lifetime.start.p0(i64 8, ptr %15) #10
  %17 = load ptr, ptr %10, align 8, !tbaa !15
  %18 = call noalias ptr @fopen(ptr noundef %17, ptr noundef @.str.288)
  store ptr %18, ptr %15, align 8, !tbaa !8
  %19 = load ptr, ptr %15, align 8, !tbaa !8
  %20 = icmp ne ptr %19, null
  br i1 %20, label %28, label %21

21:                                               ; preds = %6
  %22 = load i32, ptr %13, align 4, !tbaa !14
  %23 = sext i32 %22 to i64
  %24 = add nsw i64 %23, 0
  %25 = add nsw i64 %24, 1610612736
  %26 = sub nsw i64 0, %25
  %27 = trunc i64 %26 to i32
  store i32 %27, ptr %7, align 4
  store i32 1, ptr %16, align 4
  br label %48

28:                                               ; preds = %6
  %29 = load ptr, ptr %8, align 8, !tbaa !15
  %30 = load i32, ptr %9, align 4, !tbaa !14
  %31 = sext i32 %30 to i64
  %32 = load ptr, ptr %15, align 8, !tbaa !8
  %33 = call i64 @fwrite(ptr noundef %29, i64 noundef 1, i64 noundef %31, ptr noundef %32)
  %34 = trunc i64 %33 to i32
  store i32 %34, ptr %14, align 4, !tbaa !14
  %35 = load ptr, ptr %15, align 8, !tbaa !8
  %36 = call i32 @fclose(ptr noundef %35)
  %37 = load i32, ptr %14, align 4, !tbaa !14
  %38 = load i32, ptr %9, align 4, !tbaa !14
  %39 = icmp ne i32 %37, %38
  br i1 %39, label %40, label %47

40:                                               ; preds = %28
  %41 = load i32, ptr %13, align 4, !tbaa !14
  %42 = sext i32 %41 to i64
  %43 = add nsw i64 %42, 100000
  %44 = add nsw i64 %43, 1610612736
  %45 = sub nsw i64 0, %44
  %46 = trunc i64 %45 to i32
  store i32 %46, ptr %7, align 4
  store i32 1, ptr %16, align 4
  br label %48

47:                                               ; preds = %28
  store i32 0, ptr %7, align 4
  store i32 1, ptr %16, align 4
  br label %48

48:                                               ; preds = %47, %40, %21
  call void @llvm.lifetime.end.p0(i64 8, ptr %15) #10
  call void @llvm.lifetime.end.p0(i64 4, ptr %14) #10
  %49 = load i32, ptr %7, align 4
  ret i32 %49
}