; Function Attrs: nofree nounwind uwtable
define internal fastcc range(i32 -1610743578, 1) i32 @_SaveDerAndPem(ptr noundef nonnull captures(none) %0, i32 noundef range(i32 0, -2147483648) %1, ptr noundef readonly captures(none) %2, i32 noundef range(i32 30802, 30843) %3) unnamed_addr #12 {
  %5 = tail call noalias ptr @fopen(ptr noundef %2, ptr noundef nonnull @.str.288)
  %.not = icmp eq ptr %5, null
  br i1 %.not, label %6, label %7

6:                                                ; preds = %4
  %.neg = sub nuw nsw i32 -1610612736, %3
  br label %13

7:                                                ; preds = %4
  %8 = zext nneg i32 %1 to i64
  %9 = tail call i64 @fwrite(ptr noundef nonnull %0, i64 noundef 1, i64 noundef %8, ptr noundef nonnull %5)
  %10 = trunc i64 %9 to i32
  %11 = tail call i32 @fclose(ptr noundef nonnull %5)
  %.not11 = icmp eq i32 %1, %10
  %12 = sub nuw nsw i32 -1610712736, %3
  %spec.select = select i1 %.not11, i32 0, i32 %12
  br label %13

13:                                               ; preds = %7, %6
  %.0 = phi i32 [ %.neg, %6 ], [ %spec.select, %7 ]
  ret i32 %.0
}